target datalayout = "e-m:e-p270:32:32-p271:32:32-p272:64:64-i64:64-i128:128-f80:128-n8:16:32:64-S128"
target triple = "x86_64-pc-linux-gnu"

%struct.GDBUserState = type { i32, ptr, i32, i8, [16 x i64], i8, i32, [2 x i32], i32, i32, [128 x i8], i64 }

@gdbserver_user_state = internal global %struct.GDBUserState zeroinitializer, align 8
@.str.19 = private unnamed_addr constant [3 x i8] c"OK\00", align 1

; Function Attrs: nounwind sspstrong uwtable
define dso_local zeroext i1 @gdb_handle_detach_user(i32 noundef %0) #0 {
  %2 = alloca i1, align 1
  %3 = alloca i32, align 4
  %4 = alloca i8, align 1
  %5 = alloca i32, align 4
  store i32 %0, ptr %3, align 4
  call void @llvm.lifetime.start.p0(i64 1, ptr %4) #14
  store i8 0, ptr %4, align 1, !annotation !4
  %6 = load i32, ptr getelementptr inbounds nuw (%struct.GDBUserState, ptr @gdbserver_user_state, i32 0, i32 6), align 4
  %7 = icmp eq i32 %6, 1
  br i1 %7, label %8, label %25

8:                                                ; preds = %1
  %9 = load i32, ptr %3, align 4
  %10 = load i32, ptr getelementptr inbounds nuw (%struct.GDBUserState, ptr @gdbserver_user_state, i32 0, i32 8), align 8
  %11 = icmp eq i32 %9, %10
  %12 = zext i1 %11 to i8
  store i8 %12, ptr %4, align 1
  %13 = load i8, ptr %4, align 1, !range !7, !noundef !8
  %14 = trunc i8 %13 to i1
  br i1 %14, label %19, label %15

15:                                               ; preds = %8
  %16 = load i32, ptr %3, align 4
  %17 = call i32 @getpid() #14
  %18 = icmp eq i32 %16, %17
  br i1 %18, label %19, label %24

19:                                               ; preds = %15, %8
  %20 = load i8, ptr %4, align 1, !range !7, !noundef !8
  %21 = trunc i8 %20 to i1
  %22 = select i1 %21, i32 4, i32 5
  store i32 %22, ptr getelementptr inbounds nuw (%struct.GDBUserState, ptr @gdbserver_user_state, i32 0, i32 6), align 4
  %23 = call i32 @gdb_put_packet(ptr noundef @.str.19)
  store i1 true, ptr %2, align 1
  store i32 1, ptr %5, align 4
  br label %26

24:                                               ; preds = %15
  br label %25

25:                                               ; preds = %24, %1
  store i1 false, ptr %2, align 1
  store i32 1, ptr %5, align 4
  br label %26

26:                                               ; preds = %25, %19
  call void @llvm.lifetime.end.p0(i64 1, ptr %4) #14
  %27 = load i1, ptr %2, align 1
  ret i1 %27
}