; Function Attrs: nounwind sspstrong uwtable
define dso_local noundef zeroext i1 @gdb_handle_detach_user(i32 noundef %0) local_unnamed_addr #0 {
  %2 = load i32, ptr getelementptr inbounds nuw (i8, ptr @gdbserver_user_state, i64 156), align 4
  %3 = icmp eq i32 %2, 1
  br i1 %3, label %4, label %13

4:                                                ; preds = %1
  %5 = load i32, ptr getelementptr inbounds nuw (i8, ptr @gdbserver_user_state, i64 168), align 8
  %6 = icmp eq i32 %0, %5
  br i1 %6, label %10, label %7

7:                                                ; preds = %4
  %8 = tail call i32 @getpid() #16
  %9 = icmp eq i32 %0, %8
  br i1 %9, label %10, label %13

10:                                               ; preds = %7, %4
  %11 = phi i32 [ 5, %7 ], [ 4, %4 ]
  store i32 %11, ptr getelementptr inbounds nuw (i8, ptr @gdbserver_user_state, i64 156), align 4
  %12 = tail call i32 @gdb_put_packet(ptr noundef nonnull @.str.19) #16
  br label %13

13:                                               ; preds = %1, %7, %10
  %.0 = phi i1 [ true, %10 ], [ false, %7 ], [ false, %1 ]
  ret i1 %.0
}